Certificate:
    Data:
        Version: 3 (0x2)
        Serial Number:
            31:20:3c:bf:3c:e8:56:d9:0e:e6:3c:f7:3c:c2:95:cf
        Signature Algorithm: sha256WithRSAEncryption
        Issuer: CN=ca
        Validity
            Not Before: Dec  6 15:52:25 2025 GMT
            Not After : Nov 20 15:52:25 2028 GMT
        Subject: CN=myclient2
        Subject Public Key Info:
            Public Key Algorithm: rsaEncryption
                RSA Public-Key: (2048 bit)
                Modulus:
                    00:c7:6e:65:bf:4f:13:ef:f8:d3:df:e7:0a:24:61:
                    35:1a:d3:92:ca:ef:9e:8e:46:65:36:65:c5:a8:76:
                    f6:2d:d5:eb:2c:59:5a:7c:b1:25:d2:62:8b:99:0e:
                    db:f7:59:28:87:28:d9:57:87:64:22:f2:75:66:97:
                    6c:da:ce:a9:25:73:ca:c6:c6:bc:e6:a8:3d:81:7d:
                    09:6e:8a:25:fc:87:74:f6:28:91:24:d4:c7:be:73:
                    34:58:93:2e:9d:57:5a:af:5d:bb:01:df:33:1a:60:
                    9a:d3:ef:66:ee:6a:da:91:89:08:dd:2d:f2:c7:b1:
                    16:a0:43:46:b6:b6:86:f3:79:0c:c4:ec:d1:43:de:
                    d1:c1:8d:86:b2:d6:e7:fa:8f:07:67:ff:f0:6f:57:
                    6a:52:fd:5a:16:34:27:69:ff:19:14:b2:5b:02:cd:
                    54:95:08:31:11:ba:6e:fb:41:70:3c:cb:a4:a8:0a:
                    f7:58:91:e7:1c:2f:18:e6:47:57:d6:2e:d9:ed:34:
                    00:62:81:6c:22:ef:f4:07:c4:ef:e6:fa:37:d4:0a:
                    73:a8:cb:b8:47:55:8b:b3:9d:95:cf:f9:f1:ee:e6:
                    f2:97:37:72:60:18:53:f6:c6:81:86:c2:50:4a:20:
                    25:38:f5:50:13:06:f7:ff:32:84:da:a3:81:76:0a:
                    59:33
                Exponent: 65537 (0x10001)
        X509v3 extensions:
            X509v3 Basic Constraints: 
                CA:FALSE
            X509v3 Subject Key Identifier: 
                A5:54:11:71:BA:AD:E3:21:4F:10:86:BB:65:53:BA:30:95:E9:32:62
            X509v3 Authority Key Identifier: 
                keyid:A3:19:FD:6A:72:03:03:4C:DE:A7:E5:F7:46:09:C5:03:37:A3:FA:55
                DirName:/CN=ca
                serial:0C:F5:F2:73:37:7A:43:B6:7C:C9:60:8D:BB:5F:9F:93:1D:09:D1:01

            X509v3 Extended Key Usage: 
                TLS Web Client Authentication
            X509v3 Key Usage: 
                Digital Signature
    Signature Algorithm: sha256WithRSAEncryption
         5d:e8:62:ab:47:a8:c8:a5:37:83:5b:88:18:c8:b1:15:b1:dd:
         f2:fc:91:fe:6f:83:9e:a5:28:3b:1d:b4:f8:e6:45:43:9d:8d:
         e4:32:79:c5:f0:7b:3f:2f:c2:1e:be:82:00:51:75:0b:07:b0:
         28:b9:e9:ec:53:fc:3a:9d:a7:87:1c:d5:f9:c4:97:0b:2d:c4:
         ba:83:cd:2b:d9:83:18:40:c4:eb:d7:c2:54:0b:9e:13:13:89:
         b8:94:44:60:70:2c:15:a7:b0:1c:0a:0d:2b:fa:a1:7c:af:97:
         1f:ef:c9:d2:41:84:08:c0:bd:9e:a7:1a:03:99:ca:e0:42:40:
         70:0d:8c:df:e7:f8:d8:92:3f:0e:d3:9a:a8:1c:bd:65:c6:28:
         71:27:7f:88:14:79:a6:6a:35:ce:28:49:b2:00:02:4c:87:36:
         1b:f0:89:ab:26:7a:15:73:df:6f:43:fe:1a:99:2e:ac:ee:99:
         ba:2a:c7:2f:6e:ef:43:fa:04:d1:2a:46:9c:a4:8c:f5:46:58:
         86:13:14:d7:b1:04:5f:8b:1c:f7:26:3a:90:21:6f:0a:71:87:
         1d:85:13:2b:97:9a:22:63:04:3b:3b:17:80:ad:da:4d:c3:83:
         f4:e6:f6:7b:08:78:7b:68:d1:c0:26:7f:2d:10:14:8b:58:26:
         51:2b:66:1d
-----BEGIN CERTIFICATE-----
MIIDRTCCAi2gAwIBAgIQMSA8vzzoVtkO5jz3PMKVzzANBgkqhkiG9w0BAQsFADAN
MQswCQYDVQQDDAJjYTAeFw0yNTEyMDYxNTUyMjVaFw0yODExMjAxNTUyMjVaMBQx
EjAQBgNVBAMMCW15Y2xpZW50MjCCASIwDQYJKoZIhvcNAQEBBQADggEPADCCAQoC
ggEBAMduZb9PE+/409/nCiRhNRrTksrvno5GZTZlxah29i3V6yxZWnyxJdJii5kO
2/dZKIco2VeHZCLydWaXbNrOqSVzysbGvOaoPYF9CW6KJfyHdPYokSTUx75zNFiT
Lp1XWq9duwHfMxpgmtPvZu5q2pGJCN0t8sexFqBDRra2hvN5DMTs0UPe0cGNhrLW
5/qPB2f/8G9XalL9WhY0J2n/GRSyWwLNVJUIMRG6bvtBcDzLpKgK91iR5xwvGOZH
V9Yu2e00AGKBbCLv9AfE7+b6N9QKc6jLuEdVi7Odlc/58e7m8pc3cmAYU/bGgYbC
UEogJTj1UBMG9/8yhNqjgXYKWTMCAwEAAaOBmTCBljAJBgNVHRMEAjAAMB0GA1Ud
DgQWBBSlVBFxuq3jIU8QhrtlU7owlekyYjBIBgNVHSMEQTA/gBSjGf1qcgMDTN6n
5fdGCcUDN6P6VaERpA8wDTELMAkGA1UEAwwCY2GCFAz18nM3ekO2fMlgjbtfn5Md
CdEBMBMGA1UdJQQMMAoGCCsGAQUFBwMCMAsGA1UdDwQEAwIHgDANBgkqhkiG9w0B
AQsFAAOCAQEAXehiq0eoyKU3g1uIGMixFbHd8vyR/m+DnqUoOx20+OZFQ52N5DJ5
xfB7Py/CHr6CAFF1CwewKLnp7FP8Op2nhxzV+cSXCy3EuoPNK9mDGEDE69fCVAue
ExOJuJREYHAsFaewHAoNK/qhfK+XH+/J0kGECMC9nqcaA5nK4EJAcA2M3+f42JI/
DtOaqBy9ZcYocSd/iBR5pmo1zihJsgACTIc2G/CJqyZ6FXPfb0P+GpkurO6ZuirH
L27vQ/oE0SpGnKSM9UZYhhMU17EEX4sc9yY6kCFvCnGHHYUTK5eaImMEOzsXgK3a
TcOD9Ob2ewh4e2jRwCZ/LRAUi1gmUStmHQ==
-----END CERTIFICATE-----
