Certificate:
    Data:
        Version: 3 (0x2)
        Serial Number:
            0b:a7:30:87:d2:7b:1e:c4:f7:03:49:36:cc:f7:46:c7
        Signature Algorithm: sha256WithRSAEncryption
        Issuer: CN=2168340
        Validity
            Not Before: Dec 13 12:37:44 2025 GMT
            Not After : Nov 27 12:37:44 2028 GMT
        Subject: CN=vpn_client_1
        Subject Public Key Info:
            Public Key Algorithm: rsaEncryption
                RSA Public-Key: (2048 bit)
                Modulus:
                    00:da:39:e5:ce:0b:06:3a:12:94:f4:96:d5:2b:28:
                    5a:77:e1:8e:ad:e0:d0:b7:33:e3:e3:31:00:be:f7:
                    61:7f:1d:25:fb:5a:8e:cc:61:99:ff:0e:27:7b:16:
                    bf:f2:51:a7:fb:c0:4f:27:7f:17:d8:93:96:27:2c:
                    82:0b:71:5e:df:ff:c2:c4:35:fd:9f:8a:a7:17:77:
                    ea:20:ab:e1:40:9e:74:a7:45:3c:45:d3:88:d5:a8:
                    07:b4:52:bc:8b:50:6e:5d:55:4e:0e:21:3a:20:19:
                    bc:49:f8:10:9b:56:94:16:73:04:94:54:88:21:2a:
                    90:72:f9:97:3e:c2:f1:9c:62:5b:18:8d:91:1e:b0:
                    3b:86:0f:28:47:fa:c4:cb:2f:5d:d0:73:90:80:bd:
                    8c:de:87:6e:8f:08:cc:3b:95:bd:57:e4:b8:e5:ef:
                    d0:f7:c4:9d:9a:01:92:58:89:8c:9d:36:94:ae:6b:
                    08:71:2e:19:95:66:a7:f4:62:ce:7c:5e:8a:e1:4a:
                    91:bf:0f:64:b0:80:ad:b0:d8:42:34:ff:13:e2:81:
                    f0:df:2f:35:35:b8:32:58:a9:a3:2c:7b:8c:2c:68:
                    cf:6a:64:d8:a0:71:4b:2d:44:c6:f5:da:ad:7b:04:
                    d3:d3:5f:78:00:a4:d1:db:94:ec:1b:f0:3e:69:6f:
                    9e:97
                Exponent: 65537 (0x10001)
        X509v3 extensions:
            X509v3 Basic Constraints: 
                CA:FALSE
            X509v3 Subject Key Identifier: 
                9C:1E:82:99:89:2A:D1:A1:3C:8C:CF:23:C0:DC:73:EE:DE:61:4D:1D
            X509v3 Authority Key Identifier: 
                keyid:A9:F5:2A:E7:62:D5:7C:C4:9F:03:6B:17:4C:E6:B2:41:BF:C6:56:76
                DirName:/CN=2168340
                serial:07:94:57:98:CC:68:03:6A:FE:DD:94:87:1C:A0:00:3F:1A:22:DE:41

            X509v3 Extended Key Usage: 
                TLS Web Client Authentication
            X509v3 Key Usage: 
                Digital Signature
    Signature Algorithm: sha256WithRSAEncryption
         02:f5:0f:ec:e0:81:5a:2a:c5:5d:be:aa:cf:c1:8d:60:fd:e0:
         af:31:1e:0a:06:68:98:23:f0:86:36:27:82:8b:9e:8c:ea:fb:
         a2:f2:b1:be:0d:68:05:ce:1e:ee:05:b3:9d:c2:26:ed:64:56:
         11:45:2e:46:d4:e8:c9:67:78:69:cb:fb:e3:3f:be:48:8e:f2:
         ab:27:61:c7:f1:03:a6:75:b3:66:74:0b:f9:97:d4:40:47:e1:
         90:2f:82:17:30:f9:83:f6:d3:7f:cb:8f:51:7a:c8:b8:84:72:
         29:df:b9:60:69:fb:b1:90:f0:71:59:a3:6c:57:b3:8e:cf:54:
         4d:a6:57:81:ee:c8:61:13:a4:a4:d5:52:70:82:c1:fc:25:0f:
         2f:2b:7a:8d:95:87:64:c0:cf:bf:e7:51:b3:95:4f:8f:39:2a:
         e9:08:21:f6:e0:31:52:ac:50:2a:d7:19:e4:a9:40:c6:90:69:
         6a:19:a7:eb:cf:ef:af:23:c3:4c:cf:5d:54:4f:9d:29:1d:00:
         d7:f1:80:54:e9:f2:93:98:d3:f9:27:ee:94:0d:ab:6d:7d:f7:
         c1:b9:03:83:69:b5:12:34:df:57:d5:6b:d5:5a:dc:1e:84:5b:
         4e:92:57:47:89:f4:a5:eb:d0:2a:31:b9:a3:e4:97:24:b2:e5:
         1d:a6:7a:8d
-----BEGIN CERTIFICATE-----
MIIDUjCCAjqgAwIBAgIQC6cwh9J7HsT3A0k2zPdGxzANBgkqhkiG9w0BAQsFADAS
MRAwDgYDVQQDDAcyMTY4MzQwMB4XDTI1MTIxMzEyMzc0NFoXDTI4MTEyNzEyMzc0
NFowFzEVMBMGA1UEAwwMdnBuX2NsaWVudF8xMIIBIjANBgkqhkiG9w0BAQEFAAOC
AQ8AMIIBCgKCAQEA2jnlzgsGOhKU9JbVKyhad+GOreDQtzPj4zEAvvdhfx0l+1qO
zGGZ/w4nexa/8lGn+8BPJ38X2JOWJyyCC3Fe3//CxDX9n4qnF3fqIKvhQJ50p0U8
RdOI1agHtFK8i1BuXVVODiE6IBm8SfgQm1aUFnMElFSIISqQcvmXPsLxnGJbGI2R
HrA7hg8oR/rEyy9d0HOQgL2M3odujwjMO5W9V+S45e/Q98SdmgGSWImMnTaUrmsI
cS4ZlWan9GLOfF6K4UqRvw9ksICtsNhCNP8T4oHw3y81NbgyWKmjLHuMLGjPamTY
oHFLLUTG9dqtewTT0194AKTR25TsG/A+aW+elwIDAQABo4GeMIGbMAkGA1UdEwQC
MAAwHQYDVR0OBBYEFJwegpmJKtGhPIzPI8Dcc+7eYU0dME0GA1UdIwRGMESAFKn1
Kudi1XzEnwNrF0zmskG/xlZ2oRakFDASMRAwDgYDVQQDDAcyMTY4MzQwghQHlFeY
zGgDav7dlIccoAA/GiLeQTATBgNVHSUEDDAKBggrBgEFBQcDAjALBgNVHQ8EBAMC
B4AwDQYJKoZIhvcNAQELBQADggEBAAL1D+zggVoqxV2+qs/BjWD94K8xHgoGaJgj
8IY2J4KLnozq+6Lysb4NaAXOHu4Fs53CJu1kVhFFLkbU6MlneGnL++M/vkiO8qsn
YcfxA6Z1s2Z0C/mX1EBH4ZAvghcw+YP203/Lj1F6yLiEcinfuWBp+7GQ8HFZo2xX
s47PVE2mV4HuyGETpKTVUnCCwfwlDy8reo2Vh2TAz7/nUbOVT485KukIIfbgMVKs
UCrXGeSpQMaQaWoZp+vP768jw0zPXVRPnSkdANfxgFTp8pOY0/kn7pQNq21998G5
A4NptRI031fVa9Va3B6EW06SV0eJ9KXr0CoxuaPklySy5R2meo0=
-----END CERTIFICATE-----
