Certificate:
    Data:
        Version: 3 (0x2)
        Serial Number:
            d9:d5:39:45:d3:7a:16:9a:97:c2:29:a5:aa:cd:fd:d3
        Signature Algorithm: sha256WithRSAEncryption
        Issuer: CN=2168340
        Validity
            Not Before: Dec 13 12:43:39 2025 GMT
            Not After : Nov 27 12:43:39 2028 GMT
        Subject: CN=vpn_client_2
        Subject Public Key Info:
            Public Key Algorithm: rsaEncryption
                RSA Public-Key: (2048 bit)
                Modulus:
                    00:ce:2c:79:21:0c:0d:67:23:f5:e0:18:08:50:83:
                    c0:76:a0:d8:51:8e:12:01:ff:9a:18:45:03:15:b8:
                    2d:6a:49:cb:66:30:e9:41:ba:fa:30:1e:15:d3:3d:
                    83:18:31:e5:d5:6d:45:63:e1:73:64:53:5f:5e:dc:
                    53:4c:e3:ef:aa:d9:58:10:f5:15:27:4c:9d:3c:d1:
                    56:e2:25:58:0f:19:93:bb:81:b4:c2:71:42:06:33:
                    a0:bc:55:a0:cf:41:0e:64:ae:f0:fc:d4:9f:ec:8b:
                    24:88:31:28:4c:f8:54:38:be:8e:e3:b8:b0:97:4d:
                    36:88:d6:7a:81:b2:96:c6:65:b3:ee:b4:f5:2d:ad:
                    7c:08:3e:d2:14:62:d4:00:08:23:06:36:87:2d:4e:
                    a0:f3:7f:bb:8d:72:80:d5:cf:2a:14:a5:89:2c:c8:
                    3a:11:45:5d:cc:77:d2:ea:8b:39:dc:e9:05:38:56:
                    62:4a:ce:c4:b1:5e:45:ba:23:fd:f2:b8:2d:5e:21:
                    4c:30:e2:1c:a1:46:6c:d9:d4:52:d6:12:c8:19:a9:
                    b2:b5:72:ba:58:5c:5d:18:23:0f:e0:7a:4f:7f:80:
                    08:ac:9b:fe:3a:65:8b:9f:b2:25:e9:a4:5a:cd:87:
                    00:47:ca:15:ea:df:fe:54:7e:48:b7:d1:43:b2:6d:
                    33:17
                Exponent: 65537 (0x10001)
        X509v3 extensions:
            X509v3 Basic Constraints: 
                CA:FALSE
            X509v3 Subject Key Identifier: 
                E0:46:F1:E2:82:E7:92:24:D2:A7:85:D8:00:DB:31:DB:93:21:33:79
            X509v3 Authority Key Identifier: 
                keyid:A9:F5:2A:E7:62:D5:7C:C4:9F:03:6B:17:4C:E6:B2:41:BF:C6:56:76
                DirName:/CN=2168340
                serial:07:94:57:98:CC:68:03:6A:FE:DD:94:87:1C:A0:00:3F:1A:22:DE:41

            X509v3 Extended Key Usage: 
                TLS Web Client Authentication
            X509v3 Key Usage: 
                Digital Signature
    Signature Algorithm: sha256WithRSAEncryption
         28:65:2d:21:42:0c:8b:73:29:b4:ab:5a:06:4f:d4:27:d9:a1:
         a3:fa:c4:a3:c3:13:eb:7e:2a:56:08:7c:3c:54:ac:71:32:c6:
         96:5b:7f:3c:8b:ae:77:0f:94:16:c3:08:9e:90:58:3b:05:d5:
         cb:6f:cd:89:b1:25:8f:2d:a1:4f:54:14:45:14:e1:07:87:ce:
         5c:fb:fa:e9:92:6e:9b:56:35:39:37:93:f5:14:92:17:e4:fc:
         14:af:d4:47:44:40:61:79:14:7b:dd:92:a7:dc:f0:a7:c9:f3:
         cc:8f:49:0e:e2:02:42:52:0c:af:6e:4a:f9:e8:44:b6:15:6e:
         68:fb:bb:fe:2b:fa:05:27:3c:db:66:5a:f0:26:3e:0d:20:32:
         11:22:05:ee:91:61:5f:b5:a4:e0:c0:37:fd:0e:8a:4f:b4:2d:
         86:59:5c:1b:9b:08:8d:68:a4:04:01:09:58:17:5a:dd:69:ee:
         dc:f1:2d:9b:59:5f:96:98:29:5f:88:ca:34:f7:b5:fd:80:ba:
         44:df:fa:34:74:5e:de:f5:5b:89:12:15:01:65:2d:07:51:6c:
         aa:47:5a:fb:f1:cb:0d:31:09:b0:ec:b6:87:cd:e8:c7:bb:65:
         ca:54:8b:dc:7d:3f:6f:61:b3:d4:0d:88:4a:3d:81:1a:5c:6f:
         b6:ee:26:58
-----BEGIN CERTIFICATE-----
MIIDUzCCAjugAwIBAgIRANnVOUXTehaal8IpparN/dMwDQYJKoZIhvcNAQELBQAw
EjEQMA4GA1UEAwwHMjE2ODM0MDAeFw0yNTEyMTMxMjQzMzlaFw0yODExMjcxMjQz
MzlaMBcxFTATBgNVBAMMDHZwbl9jbGllbnRfMjCCASIwDQYJKoZIhvcNAQEBBQAD
ggEPADCCAQoCggEBAM4seSEMDWcj9eAYCFCDwHag2FGOEgH/mhhFAxW4LWpJy2Yw
6UG6+jAeFdM9gxgx5dVtRWPhc2RTX17cU0zj76rZWBD1FSdMnTzRVuIlWA8Zk7uB
tMJxQgYzoLxVoM9BDmSu8PzUn+yLJIgxKEz4VDi+juO4sJdNNojWeoGylsZls+60
9S2tfAg+0hRi1AAIIwY2hy1OoPN/u41ygNXPKhSliSzIOhFFXcx30uqLOdzpBThW
YkrOxLFeRboj/fK4LV4hTDDiHKFGbNnUUtYSyBmpsrVyulhcXRgjD+B6T3+ACKyb
/jpli5+yJemkWs2HAEfKFerf/lR+SLfRQ7JtMxcCAwEAAaOBnjCBmzAJBgNVHRME
AjAAMB0GA1UdDgQWBBTgRvHigueSJNKnhdgA2zHbkyEzeTBNBgNVHSMERjBEgBSp
9SrnYtV8xJ8DaxdM5rJBv8ZWdqEWpBQwEjEQMA4GA1UEAwwHMjE2ODM0MIIUB5RX
mMxoA2r+3ZSHHKAAPxoi3kEwEwYDVR0lBAwwCgYIKwYBBQUHAwIwCwYDVR0PBAQD
AgeAMA0GCSqGSIb3DQEBCwUAA4IBAQAoZS0hQgyLcym0q1oGT9Qn2aGj+sSjwxPr
fipWCHw8VKxxMsaWW388i653D5QWwwiekFg7BdXLb82JsSWPLaFPVBRFFOEHh85c
+/rpkm6bVjU5N5P1FJIX5PwUr9RHREBheRR73ZKn3PCnyfPMj0kO4gJCUgyvbkr5
6ES2FW5o+7v+K/oFJzzbZlrwJj4NIDIRIgXukWFftaTgwDf9DopPtC2GWVwbmwiN
aKQEAQlYF1rdae7c8S2bWV+WmClfiMo097X9gLpE3/o0dF7e9VuJEhUBZS0HUWyq
R1r78csNMQmw7LaHzejHu2XKVIvcfT9vYbPUDYhKPYEaXG+27iZY
-----END CERTIFICATE-----
