Certificate:
    Data:
        Version: 3 (0x2)
        Serial Number:
            17:95:28:ba:9d:c8:fe:e8:8a:40:e8:84:05:1a:fc:6e
        Signature Algorithm: sha256WithRSAEncryption
        Issuer: CN=2168340
        Validity
            Not Before: Dec 13 12:24:42 2025 GMT
            Not After : Nov 27 12:24:42 2028 GMT
        Subject: CN=vpn_server
        Subject Public Key Info:
            Public Key Algorithm: rsaEncryption
                RSA Public-Key: (2048 bit)
                Modulus:
                    00:ce:48:af:03:94:9b:c3:25:13:cd:08:19:28:4b:
                    5a:54:50:16:76:c6:32:15:b2:4f:a0:31:3e:1f:e7:
                    b8:f3:d1:b6:dc:6d:9e:c8:e5:e4:57:62:94:ba:10:
                    fd:74:ae:83:c5:45:55:d1:2a:8d:e4:36:17:1a:9d:
                    d0:41:b2:cb:52:32:cd:74:c1:11:d5:29:b1:59:ab:
                    58:b9:16:1d:01:c9:45:18:4e:e2:32:43:b6:54:fa:
                    94:ec:3e:24:e0:47:02:d5:82:e2:16:46:70:47:79:
                    38:6b:c9:89:16:df:fa:36:b9:88:b6:8d:f0:e5:1f:
                    bd:5d:7a:13:a2:40:e9:38:ea:39:f7:54:30:d4:1c:
                    19:d4:0a:06:66:d4:4f:3e:3f:2e:b2:f1:8b:c2:a8:
                    aa:ee:62:b2:35:1b:ba:c3:91:cf:85:49:0d:aa:a4:
                    b9:7f:f5:82:87:d7:ec:b8:0b:e5:1d:45:e9:eb:d4:
                    98:92:ab:56:87:a4:a9:7f:86:bb:b6:ff:3d:d2:5c:
                    d0:b9:64:8d:e6:5d:9b:75:8b:47:c1:c6:c1:1a:9c:
                    ca:10:ea:75:fe:9b:29:3b:72:d4:3a:d9:07:ad:22:
                    77:1f:5e:ee:8a:6b:ed:46:14:9d:b9:dc:55:f9:f8:
                    f4:a2:06:f7:66:4e:52:03:75:1f:38:c7:5a:85:7b:
                    93:27
                Exponent: 65537 (0x10001)
        X509v3 extensions:
            X509v3 Basic Constraints: 
                CA:FALSE
            X509v3 Subject Key Identifier: 
                55:76:DD:75:BF:74:BE:5D:AC:2C:5C:57:22:67:2D:59:95:7D:93:2C
            X509v3 Authority Key Identifier: 
                keyid:A9:F5:2A:E7:62:D5:7C:C4:9F:03:6B:17:4C:E6:B2:41:BF:C6:56:76
                DirName:/CN=2168340
                serial:07:94:57:98:CC:68:03:6A:FE:DD:94:87:1C:A0:00:3F:1A:22:DE:41

            X509v3 Extended Key Usage: 
                TLS Web Server Authentication
            X509v3 Key Usage: 
                Digital Signature, Key Encipherment
            X509v3 Subject Alternative Name: 
                DNS:vpn_server
    Signature Algorithm: sha256WithRSAEncryption
         4f:8c:1c:98:e2:57:26:21:89:07:91:66:b3:85:9a:53:49:6a:
         d6:ca:03:79:ff:3c:74:c8:76:32:3d:7d:7d:a0:9c:38:a7:32:
         45:39:81:43:be:c1:df:d2:4a:a1:43:c1:2b:5a:67:de:29:09:
         09:3c:b6:e9:50:23:45:d6:08:ef:1e:e4:6b:b7:34:3d:37:45:
         15:c8:ec:c5:fd:94:5e:7e:1e:71:d3:11:10:46:53:ad:d7:c7:
         f1:bd:fd:79:f1:e8:69:ed:52:12:62:19:e8:9e:cc:5c:01:7e:
         61:cf:7e:51:64:85:67:cd:e9:62:7c:be:21:8a:21:f0:78:79:
         7c:0e:08:f7:fc:e3:25:4b:29:74:e3:7b:56:7c:11:2d:14:a3:
         b6:69:89:0b:e2:60:a5:b3:75:d1:97:f2:a5:6f:5a:36:cb:5c:
         8f:6d:87:ea:39:bf:05:9b:ed:fc:a7:2e:3b:e5:cb:9f:be:28:
         fd:33:3c:94:5f:53:ed:53:97:9e:fc:b3:fe:d5:bc:b4:56:a8:
         20:fe:64:4a:02:f1:05:40:d4:9f:93:1f:fa:3e:2a:86:cf:97:
         4b:9e:f1:15:96:8e:cc:80:27:9a:4e:03:88:db:34:fd:64:41:
         10:03:60:d1:9b:45:99:2f:be:f2:bc:11:26:a9:27:6c:95:80:
         db:17:b7:27
-----BEGIN CERTIFICATE-----
MIIDZzCCAk+gAwIBAgIQF5Uoup3I/uiKQOiEBRr8bjANBgkqhkiG9w0BAQsFADAS
MRAwDgYDVQQDDAcyMTY4MzQwMB4XDTI1MTIxMzEyMjQ0MloXDTI4MTEyNzEyMjQ0
MlowFTETMBEGA1UEAwwKdnBuX3NlcnZlcjCCASIwDQYJKoZIhvcNAQEBBQADggEP
ADCCAQoCggEBAM5IrwOUm8MlE80IGShLWlRQFnbGMhWyT6AxPh/nuPPRttxtnsjl
5FdilLoQ/XSug8VFVdEqjeQ2Fxqd0EGyy1IyzXTBEdUpsVmrWLkWHQHJRRhO4jJD
tlT6lOw+JOBHAtWC4hZGcEd5OGvJiRbf+ja5iLaN8OUfvV16E6JA6TjqOfdUMNQc
GdQKBmbUTz4/LrLxi8Koqu5isjUbusORz4VJDaqkuX/1gofX7LgL5R1F6evUmJKr
VoekqX+Gu7b/PdJc0LlkjeZdm3WLR8HGwRqcyhDqdf6bKTty1DrZB60idx9e7opr
7UYUnbncVfn49KIG92ZOUgN1HzjHWoV7kycCAwEAAaOBtTCBsjAJBgNVHRMEAjAA
MB0GA1UdDgQWBBRVdt11v3S+XawsXFciZy1ZlX2TLDBNBgNVHSMERjBEgBSp9Srn
YtV8xJ8DaxdM5rJBv8ZWdqEWpBQwEjEQMA4GA1UEAwwHMjE2ODM0MIIUB5RXmMxo
A2r+3ZSHHKAAPxoi3kEwEwYDVR0lBAwwCgYIKwYBBQUHAwEwCwYDVR0PBAQDAgWg
MBUGA1UdEQQOMAyCCnZwbl9zZXJ2ZXIwDQYJKoZIhvcNAQELBQADggEBAE+MHJji
VyYhiQeRZrOFmlNJatbKA3n/PHTIdjI9fX2gnDinMkU5gUO+wd/SSqFDwStaZ94p
CQk8tulQI0XWCO8e5Gu3ND03RRXI7MX9lF5+HnHTERBGU63Xx/G9/Xnx6GntUhJi
GeiezFwBfmHPflFkhWfN6WJ8viGKIfB4eXwOCPf84yVLKXTje1Z8ES0Uo7ZpiQvi
YKWzddGX8qVvWjbLXI9th+o5vwWb7fynLjvly5++KP0zPJRfU+1Tl578s/7VvLRW
qCD+ZEoC8QVA1J+TH/o+KobPl0ue8RWWjsyAJ5pOA4jbNP1kQRADYNGbRZkvvvK8
ESapJ2yVgNsXtyc=
-----END CERTIFICATE-----
